	.file	"crackme.c"
	.text
	.globl	natural_generator
	.type	natural_generator, @function
natural_generator:
.LFB0:
	.cfi_startproc
	pushq	%rbp
	.cfi_def_cfa_offset 16
	.cfi_offset 6, -16
	movq	%rsp, %rbp
	.cfi_def_cfa_register 6
	movl	$1, -4(%rbp)
	movl	b.1724(%rip), %eax
	addl	$1, %eax
	movl	%eax, b.1724(%rip)
	movl	b.1724(%rip), %edx
	movl	-4(%rbp), %eax
	addl	%edx, %eax
	popq	%rbp
	.cfi_def_cfa 7, 8
	ret
	.cfi_endproc
.LFE0:
	.size	natural_generator, .-natural_generator
	.section	.rodata
.LC0:
	.string	"%d\n"
	.text
	.globl	main
	.type	main, @function
main:
.LFB1:
	.cfi_startproc
	pushq	%rbp
	.cfi_def_cfa_offset 16
	.cfi_offset 6, -16
	movq	%rsp, %rbp
	.cfi_def_cfa_register 6
	movl	$0, %eax
	call	natural_generator
	movl	%eax, %esi
	movl	$.LC0, %edi
	movl	$0, %eax
	call	printf
	movl	$0, %eax
	call	natural_generator
	movl	%eax, %esi
	movl	$.LC0, %edi
	movl	$0, %eax
	call	printf
	movl	$0, %eax
	call	natural_generator
	movl	%eax, %esi
	movl	$.LC0, %edi
	movl	$0, %eax
	call	printf
	movl	$0, %eax
	popq	%rbp
	.cfi_def_cfa 7, 8
	ret
	.cfi_endproc
.LFE1:
	.size	main, .-main
	.data
	.align 4
	.type	b.1724, @object
	.size	b.1724, 4
b.1724:
	.long	-1
	.ident	"GCC: (GNU) 4.8.3 20140911 (Red Hat 4.8.3-7)"
	.section	.note.GNU-stack,"",@progbits
